; Function Attrs: mustprogress nounwind uwtable
define dso_local void @_ZN4llvm20BalancedPartitioning12BPThreadPool4waitEv(ptr noundef nonnull align 8 dereferenceable(101) %0) local_unnamed_addr #0 align 2 {
  %2 = alloca %"class.std::unique_lock", align 8
  %3 = getelementptr inbounds nuw i8, ptr %0, i64 8
  store ptr %3, ptr %2, align 8
  %4 = getelementptr inbounds nuw i8, ptr %2, i64 8
  %5 = tail call noundef i32 @pthread_mutex_lock(ptr noundef nonnull align 8 dereferenceable(40) %3) #22
  %.not.i.i.i = icmp eq i32 %5, 0
  br i1 %.not.i.i.i, label %_ZNSt11unique_lockISt5mutexEC2ERS0_.exit, label %6

6:                                                ; preds = %1
  tail call void @_ZSt20__throw_system_errori(i32 noundef %5) #23
  unreachable

_ZNSt11unique_lockISt5mutexEC2ERS0_.exit:         ; preds = %1
  store i8 1, ptr %4, align 8
  %7 = getelementptr inbounds nuw i8, ptr %0, i64 48
  %8 = getelementptr inbounds nuw i8, ptr %0, i64 100
  %.val.val2.i = load i8, ptr %8, align 4
  %9 = trunc i8 %.val.val2.i to i1
  br i1 %9, label %"_ZNSt18condition_variable4waitIZN4llvm20BalancedPartitioning12BPThreadPool4waitEvE3$_0EEvRSt11unique_lockISt5mutexET_.exit.thread", label %.lr.ph.i

.lr.ph.i:                                         ; preds = %_ZNSt11unique_lockISt5mutexEC2ERS0_.exit, %.lr.ph.i
  call void @_ZNSt18condition_variable4waitERSt11unique_lockISt5mutexE(ptr noundef nonnull align 8 dereferenceable(48) %7, ptr noundef nonnull align 8 dereferenceable(9) %2) #22
  %.val.val.i = load i8, ptr %8, align 4
  %10 = trunc i8 %.val.val.i to i1
  br i1 %10, label %"_ZNSt18condition_variable4waitIZN4llvm20BalancedPartitioning12BPThreadPool4waitEvE3$_0EEvRSt11unique_lockISt5mutexET_.exit", label %.lr.ph.i, !llvm.loop !9

"_ZNSt18condition_variable4waitIZN4llvm20BalancedPartitioning12BPThreadPool4waitEvE3$_0EEvRSt11unique_lockISt5mutexET_.exit": ; preds = %.lr.ph.i
  %.pre = load i8, ptr %4, align 8
  %11 = trunc i8 %.pre to i1
  br i1 %11, label %"_ZNSt18condition_variable4waitIZN4llvm20BalancedPartitioning12BPThreadPool4waitEvE3$_0EEvRSt11unique_lockISt5mutexET_.exit.thread", label %_ZNSt11unique_lockISt5mutexED2Ev.exit

"_ZNSt18condition_variable4waitIZN4llvm20BalancedPartitioning12BPThreadPool4waitEvE3$_0EEvRSt11unique_lockISt5mutexET_.exit.thread": ; preds = %_ZNSt11unique_lockISt5mutexEC2ERS0_.exit, %"_ZNSt18condition_variable4waitIZN4llvm20BalancedPartitioning12BPThreadPool4waitEvE3$_0EEvRSt11unique_lockISt5mutexET_.exit"
  %12 = load ptr, ptr %2, align 8
  %.not.i.i = icmp eq ptr %12, null
  br i1 %.not.i.i, label %_ZNSt11unique_lockISt5mutexED2Ev.exit, label %13

13:                                               ; preds = %"_ZNSt18condition_variable4waitIZN4llvm20BalancedPartitioning12BPThreadPool4waitEvE3$_0EEvRSt11unique_lockISt5mutexET_.exit.thread"
  %14 = call noundef i32 @pthread_mutex_unlock(ptr noundef nonnull align 8 dereferenceable(40) %12) #22
  store i8 0, ptr %4, align 8
  br label %_ZNSt11unique_lockISt5mutexED2Ev.exit

_ZNSt11unique_lockISt5mutexED2Ev.exit:            ; preds = %"_ZNSt18condition_variable4waitIZN4llvm20BalancedPartitioning12BPThreadPool4waitEvE3$_0EEvRSt11unique_lockISt5mutexET_.exit", %"_ZNSt18condition_variable4waitIZN4llvm20BalancedPartitioning12BPThreadPool4waitEvE3$_0EEvRSt11unique_lockISt5mutexET_.exit.thread", %13
  %15 = load ptr, ptr %0, align 8
  %16 = load ptr, ptr %15, align 8
  %17 = getelementptr inbounds nuw i8, ptr %16, i64 24
  %18 = load ptr, ptr %17, align 8
  call void %18(ptr noundef nonnull align 8 dereferenceable(8) %15) #22
  ret void
}